target datalayout = "e-m:e-p270:32:32-p271:32:32-p272:64:64-i64:64-i128:128-f80:128-n8:16:32:64-S128"
target triple = "x86_64-pc-linux-gnu"

%struct._zval_struct = type { %union._zend_value, %union.anon, %union.anon.2 }
%union._zend_value = type { i64 }
%union.anon = type { i32 }
%union.anon.2 = type { i32 }
%struct._zend_refcounted_h = type { i32, %union.anon.3 }
%union.anon.3 = type { i32 }
%struct._zend_fcall_info_cache = type { ptr, ptr, ptr, ptr, ptr }
%struct._zend_llist = type { ptr, ptr, i64, i64, ptr, i8, ptr }
%struct._php_sqlite3_db_object = type { i8, i8, ptr, ptr, ptr, %struct._zend_fcall_info_cache, %struct._zend_llist, %struct._zend_object }
%struct._zend_object = type { %struct._zend_refcounted_h, i32, i32, ptr, ptr, ptr, [1 x %struct._zval_struct] }
%struct._php_sqlite3_stmt_object = type { ptr, ptr, i8, ptr, %struct._zend_object }
%struct._zend_refcounted = type { %struct._zend_refcounted_h }

; Function Attrs: alwaysinline nounwind uwtable
define internal i32 @zend_gc_delref(ptr noundef %0) #8 {
  %2 = alloca ptr, align 8
  store ptr %0, ptr %2, align 8, !tbaa !206
  %3 = load ptr, ptr %2, align 8, !tbaa !206
  %4 = getelementptr inbounds nuw %struct._zend_refcounted_h, ptr %3, i32 0, i32 0
  %5 = load i32, ptr %4, align 4, !tbaa !208
  %6 = icmp ugt i32 %5, 0
  call void @llvm.assume(i1 %6)
  br label %7

7:                                                ; preds = %1
  br label %8

8:                                                ; preds = %7
  %9 = load ptr, ptr %2, align 8, !tbaa !206
  %10 = getelementptr inbounds nuw %struct._zend_refcounted_h, ptr %9, i32 0, i32 0
  %11 = load i32, ptr %10, align 4, !tbaa !208
  %12 = add i32 %11, -1
  store i32 %12, ptr %10, align 4, !tbaa !208
  ret i32 %12
}

; Function Attrs: alwaysinline nounwind uwtable
define internal void @zend_object_release(ptr noundef %0) #8 {
  %2 = alloca ptr, align 8
  store ptr %0, ptr %2, align 8, !tbaa !67
  %3 = load ptr, ptr %2, align 8, !tbaa !67
  %4 = getelementptr inbounds nuw %struct._zend_object, ptr %3, i32 0, i32 0
  %5 = call i32 @zend_gc_delref(ptr noundef %4)
  %6 = icmp eq i32 %5, 0
  br i1 %6, label %7, label %9

7:                                                ; preds = %1
  %8 = load ptr, ptr %2, align 8, !tbaa !67
  call void @zend_objects_store_del(ptr noundef %8)
  br label %25

9:                                                ; preds = %1
  %10 = load ptr, ptr %2, align 8, !tbaa !67
  %11 = getelementptr inbounds nuw %struct._zend_refcounted, ptr %10, i32 0, i32 0
  %12 = getelementptr inbounds nuw %struct._zend_refcounted_h, ptr %11, i32 0, i32 1
  %13 = load i32, ptr %12, align 4, !tbaa !13
  %14 = and i32 %13, -1008
  %15 = icmp eq i32 %14, 0
  %16 = xor i1 %15, true
  %17 = xor i1 %16, true
  %18 = zext i1 %17 to i32
  %19 = sext i32 %18 to i64
  %20 = call i64 @llvm.expect.i64(i64 %19, i64 0)
  %21 = icmp ne i64 %20, 0
  br i1 %21, label %22, label %24

22:                                               ; preds = %9
  %23 = load ptr, ptr %2, align 8, !tbaa !67
  call void @gc_possible_root(ptr noundef %23)
  br label %24

24:                                               ; preds = %22, %9
  br label %25

25:                                               ; preds = %24, %7
  ret void
}

; Function Attrs: inlinehint nounwind uwtable
define internal ptr @php_sqlite3_stmt_from_obj(ptr noundef %0) #2 {
  %2 = alloca ptr, align 8
  store ptr %0, ptr %2, align 8, !tbaa !67
  %3 = load ptr, ptr %2, align 8, !tbaa !67
  %4 = getelementptr inbounds i8, ptr %3, i64 -32
  ret ptr %4
}

; Function Attrs: nounwind uwtable
define internal void @php_sqlite3_stmt_object_free_storage(ptr noundef %0) #0 {
  %2 = alloca ptr, align 8
  %3 = alloca ptr, align 8
  store ptr %0, ptr %2, align 8, !tbaa !67
  call void @llvm.lifetime.start.p0(i64 8, ptr %3) #15
  %4 = load ptr, ptr %2, align 8, !tbaa !67
  %5 = call ptr @php_sqlite3_stmt_from_obj(ptr noundef %4)
  store ptr %5, ptr %3, align 8, !tbaa !83
  %6 = load ptr, ptr %3, align 8, !tbaa !83
  %7 = getelementptr inbounds nuw %struct._php_sqlite3_stmt_object, ptr %6, i32 0, i32 3
  %8 = load ptr, ptr %7, align 8, !tbaa !158
  %9 = icmp ne ptr %8, null
  br i1 %9, label %10, label %22

10:                                               ; preds = %1
  %11 = load ptr, ptr %3, align 8, !tbaa !83
  %12 = getelementptr inbounds nuw %struct._php_sqlite3_stmt_object, ptr %11, i32 0, i32 3
  %13 = load ptr, ptr %12, align 8, !tbaa !158
  call void @zend_hash_destroy(ptr noundef %13)
  br label %14

14:                                               ; preds = %10
  %15 = load ptr, ptr %3, align 8, !tbaa !83
  %16 = getelementptr inbounds nuw %struct._php_sqlite3_stmt_object, ptr %15, i32 0, i32 3
  %17 = load ptr, ptr %16, align 8, !tbaa !158
  call void @_efree_56(ptr noundef %17)
  br label %18

18:                                               ; preds = %14
  br label %19

19:                                               ; preds = %18
  %20 = load ptr, ptr %3, align 8, !tbaa !83
  %21 = getelementptr inbounds nuw %struct._php_sqlite3_stmt_object, ptr %20, i32 0, i32 3
  store ptr null, ptr %21, align 8, !tbaa !158
  br label %22

22:                                               ; preds = %19, %1
  %23 = load ptr, ptr %3, align 8, !tbaa !83
  %24 = getelementptr inbounds nuw %struct._php_sqlite3_stmt_object, ptr %23, i32 0, i32 2
  %25 = load i8, ptr %24, align 8, !tbaa !88, !range !59, !noundef !60
  %26 = trunc i8 %25 to i1
  br i1 %26, label %27, label %35

27:                                               ; preds = %22
  %28 = load ptr, ptr %3, align 8, !tbaa !83
  %29 = getelementptr inbounds nuw %struct._php_sqlite3_stmt_object, ptr %28, i32 0, i32 1
  %30 = load ptr, ptr %29, align 8, !tbaa !85
  %31 = getelementptr inbounds nuw %struct._php_sqlite3_db_object, ptr %30, i32 0, i32 6
  %32 = load ptr, ptr %3, align 8, !tbaa !83
  %33 = getelementptr inbounds nuw %struct._php_sqlite3_stmt_object, ptr %32, i32 0, i32 0
  %34 = load ptr, ptr %33, align 8, !tbaa !102
  call void @zend_llist_del_element(ptr noundef %31, ptr noundef %34, ptr noundef @php_sqlite3_compare_stmt_free)
  br label %35

35:                                               ; preds = %27, %22
  %36 = load ptr, ptr %3, align 8, !tbaa !83
  %37 = getelementptr inbounds nuw %struct._php_sqlite3_stmt_object, ptr %36, i32 0, i32 1
  %38 = load ptr, ptr %37, align 8, !tbaa !85
  %39 = icmp ne ptr %38, null
  br i1 %39, label %40, label %45

40:                                               ; preds = %35
  %41 = load ptr, ptr %3, align 8, !tbaa !83
  %42 = getelementptr inbounds nuw %struct._php_sqlite3_stmt_object, ptr %41, i32 0, i32 1
  %43 = load ptr, ptr %42, align 8, !tbaa !85
  %44 = getelementptr inbounds nuw %struct._php_sqlite3_db_object, ptr %43, i32 0, i32 7
  call void @zend_object_release(ptr noundef %44)
  br label %45

45:                                               ; preds = %40, %35
  %46 = load ptr, ptr %3, align 8, !tbaa !83
  %47 = getelementptr inbounds nuw %struct._php_sqlite3_stmt_object, ptr %46, i32 0, i32 4
  call void @zend_object_std_dtor(ptr noundef %47)
  call void @llvm.lifetime.end.p0(i64 8, ptr %3) #15
  ret void
}