; Function Attrs: nounwind uwtable
define internal void @php_sqlite3_stmt_object_free_storage(ptr noundef %0) #0 {
  %2 = getelementptr inbounds i8, ptr %0, i64 -32
  %3 = getelementptr inbounds i8, ptr %0, i64 -8
  %4 = load ptr, ptr %3, align 8, !tbaa !138
  %.not = icmp eq ptr %4, null
  br i1 %.not, label %7, label %5

5:                                                ; preds = %1
  tail call void @zend_hash_destroy(ptr noundef nonnull %4) #17
  %6 = load ptr, ptr %3, align 8, !tbaa !138
  tail call void @_efree_56(ptr noundef %6) #17
  store ptr null, ptr %3, align 8, !tbaa !138
  br label %7

7:                                                ; preds = %5, %1
  %8 = getelementptr inbounds i8, ptr %0, i64 -16
  %9 = load i8, ptr %8, align 8, !tbaa !88, !range !55, !noundef !56
  %10 = trunc nuw i8 %9 to i1
  br i1 %10, label %11, label %16

11:                                               ; preds = %7
  %12 = getelementptr inbounds i8, ptr %0, i64 -24
  %13 = load ptr, ptr %12, align 8, !tbaa !84
  %14 = getelementptr inbounds nuw i8, ptr %13, i64 72
  %15 = load ptr, ptr %2, align 8, !tbaa !100
  tail call void @zend_llist_del_element(ptr noundef nonnull %14, ptr noundef %15, ptr noundef nonnull @php_sqlite3_compare_stmt_free) #17
  br label %16

16:                                               ; preds = %11, %7
  %17 = getelementptr inbounds i8, ptr %0, i64 -24
  %18 = load ptr, ptr %17, align 8, !tbaa !84
  %.not12 = icmp eq ptr %18, null
  br i1 %.not12, label %zend_object_release.exit, label %19

19:                                               ; preds = %16
  %20 = getelementptr inbounds nuw i8, ptr %18, i64 128
  %21 = load i32, ptr %20, align 4, !tbaa !70
  %22 = icmp ne i32 %21, 0
  tail call void @llvm.assume(i1 %22)
  %23 = add i32 %21, -1
  store i32 %23, ptr %20, align 4, !tbaa !70
  %24 = icmp eq i32 %23, 0
  br i1 %24, label %25, label %26

25:                                               ; preds = %19
  tail call void @zend_objects_store_del(ptr noundef nonnull %20) #17
  br label %zend_object_release.exit

26:                                               ; preds = %19
  %27 = getelementptr inbounds nuw i8, ptr %18, i64 132
  %28 = load i32, ptr %27, align 4, !tbaa !8
  %29 = and i32 %28, -1008
  %30 = icmp eq i32 %29, 0
  br i1 %30, label %31, label %zend_object_release.exit, !prof !108

31:                                               ; preds = %26
  tail call void @gc_possible_root(ptr noundef nonnull %20) #17
  br label %zend_object_release.exit

zend_object_release.exit:                         ; preds = %31, %26, %25, %16
  tail call void @zend_object_std_dtor(ptr noundef nonnull %0) #17
  ret void
}